target datalayout = "e-m:e-p270:32:32-p271:32:32-p272:64:64-i64:64-i128:128-f80:128-n8:16:32:64-S128"
target triple = "x86_64-pc-linux-gnu"

%struct._asn1_ctx_t = type { i32, i32, i8, ptr, ptr, ptr, ptr, ptr, %struct.anon.0, %struct.anon.3, %struct.anon.4, ptr }
%struct.anon.0 = type { i32, i8, i8, i8, ptr, ptr, i32, i32, ptr, ptr, ptr, %union.anon }
%union.anon = type { %struct.anon.1 }
%struct.anon.1 = type { ptr }
%struct.anon.3 = type { ptr, ptr, ptr }
%struct.anon.4 = type { i32, i8, ptr, i32, i32, ptr, ptr, ptr, %union.anon.5 }
%union.anon.5 = type { %struct.anon.6 }
%struct.anon.6 = type { ptr }

@hf_s1ap_transportLayerAddressIPv4 = internal global i32 0, align 4
@hf_s1ap_transportLayerAddressIPv6 = internal global i32 0, align 4
@ett_s1ap_TransportLayerAddress = internal global i32 0, align 4

; Function Attrs: null_pointer_is_valid sspstrong uwtable
define internal i32 @dissect_s1ap_TransportLayerAddress(ptr noundef %0, i32 noundef %1, ptr noundef %2, ptr noundef %3, i32 noundef %4) #0 {
  %6 = alloca i32, align 4
  %7 = alloca ptr, align 8
  %8 = alloca i32, align 4
  %9 = alloca ptr, align 8
  %10 = alloca ptr, align 8
  %11 = alloca i32, align 4
  %12 = alloca ptr, align 8
  %13 = alloca ptr, align 8
  %14 = alloca i32, align 4
  %15 = alloca i32, align 4
  store ptr %0, ptr %7, align 8
  store i32 %1, ptr %8, align 4
  store ptr %2, ptr %9, align 8
  store ptr %3, ptr %10, align 8
  store i32 %4, ptr %11, align 4
  call void @llvm.lifetime.start.p0(i64 8, ptr %12) #8
  store ptr null, ptr %12, align 8
  call void @llvm.lifetime.start.p0(i64 8, ptr %13) #8
  call void @llvm.lifetime.start.p0(i64 4, ptr %14) #8
  %16 = load ptr, ptr %7, align 8
  %17 = load i32, ptr %8, align 4
  %18 = load ptr, ptr %9, align 8
  %19 = load ptr, ptr %10, align 8
  %20 = load i32, ptr %11, align 4
  %21 = call i32 @dissect_per_bit_string(ptr noundef %16, i32 noundef %17, ptr noundef %18, ptr noundef %19, i32 noundef %20, i32 noundef 1, i32 noundef 160, i1 noundef zeroext true, ptr noundef null, i32 noundef 0, ptr noundef %12, ptr noundef null)
  store i32 %21, ptr %8, align 4
  %22 = load ptr, ptr %12, align 8
  %23 = icmp ne ptr %22, null
  br i1 %23, label %26, label %24

24:                                               ; preds = %5
  %25 = load i32, ptr %8, align 4
  store i32 %25, ptr %6, align 4
  store i32 1, ptr %15, align 4
  br label %65

26:                                               ; preds = %5
  %27 = load ptr, ptr %12, align 8
  %28 = call i32 @tvb_reported_length(ptr noundef %27)
  store i32 %28, ptr %14, align 4
  %29 = load ptr, ptr %9, align 8
  %30 = getelementptr inbounds nuw %struct._asn1_ctx_t, ptr %29, i32 0, i32 4
  %31 = load ptr, ptr %30, align 8
  %32 = load i32, ptr @ett_s1ap_TransportLayerAddress, align 4
  %33 = call ptr @proto_item_add_subtree(ptr noundef %31, i32 noundef %32)
  store ptr %33, ptr %13, align 8
  %34 = load i32, ptr %14, align 4
  %35 = icmp eq i32 %34, 4
  br i1 %35, label %36, label %41

36:                                               ; preds = %26
  %37 = load ptr, ptr %13, align 8
  %38 = load i32, ptr @hf_s1ap_transportLayerAddressIPv4, align 4
  %39 = load ptr, ptr %12, align 8
  %40 = call ptr @proto_tree_add_item(ptr noundef %37, i32 noundef %38, ptr noundef %39, i32 noundef 0, i32 noundef 4, i32 noundef 0)
  br label %63

41:                                               ; preds = %26
  %42 = load i32, ptr %14, align 4
  %43 = icmp eq i32 %42, 16
  br i1 %43, label %44, label %49

44:                                               ; preds = %41
  %45 = load ptr, ptr %13, align 8
  %46 = load i32, ptr @hf_s1ap_transportLayerAddressIPv6, align 4
  %47 = load ptr, ptr %12, align 8
  %48 = call ptr @proto_tree_add_item(ptr noundef %45, i32 noundef %46, ptr noundef %47, i32 noundef 0, i32 noundef 16, i32 noundef 0)
  br label %62

49:                                               ; preds = %41
  %50 = load i32, ptr %14, align 4
  %51 = icmp eq i32 %50, 20
  br i1 %51, label %52, label %61

52:                                               ; preds = %49
  %53 = load ptr, ptr %13, align 8
  %54 = load i32, ptr @hf_s1ap_transportLayerAddressIPv4, align 4
  %55 = load ptr, ptr %12, align 8
  %56 = call ptr @proto_tree_add_item(ptr noundef %53, i32 noundef %54, ptr noundef %55, i32 noundef 0, i32 noundef 4, i32 noundef 0)
  %57 = load ptr, ptr %13, align 8
  %58 = load i32, ptr @hf_s1ap_transportLayerAddressIPv6, align 4
  %59 = load ptr, ptr %12, align 8
  %60 = call ptr @proto_tree_add_item(ptr noundef %57, i32 noundef %58, ptr noundef %59, i32 noundef 4, i32 noundef 16, i32 noundef 0)
  br label %61

61:                                               ; preds = %52, %49
  br label %62

62:                                               ; preds = %61, %44
  br label %63

63:                                               ; preds = %62, %36
  %64 = load i32, ptr %8, align 4
  store i32 %64, ptr %6, align 4
  store i32 1, ptr %15, align 4
  br label %65

65:                                               ; preds = %63, %24
  call void @llvm.lifetime.end.p0(i64 4, ptr %14) #8
  call void @llvm.lifetime.end.p0(i64 8, ptr %13) #8
  call void @llvm.lifetime.end.p0(i64 8, ptr %12) #8
  %66 = load i32, ptr %6, align 4
  ret i32 %66
}