; Function Attrs: null_pointer_is_valid sspstrong uwtable
define internal i32 @dissect_s1ap_TransportLayerAddress(ptr noundef %0, i32 noundef %1, ptr noundef %2, ptr noundef %3, i32 noundef %4) #0 {
  %6 = alloca ptr, align 8
  call void @llvm.lifetime.start.p0(i64 8, ptr nonnull %6) #8
  store ptr null, ptr %6, align 8
  %7 = call i32 @dissect_per_bit_string(ptr noundef %0, i32 noundef %1, ptr noundef %2, ptr noundef %3, i32 noundef %4, i32 noundef 1, i32 noundef 160, i1 noundef zeroext true, ptr noundef null, i32 noundef 0, ptr noundef nonnull %6, ptr noundef null)
  %8 = load ptr, ptr %6, align 8
  %.not = icmp eq ptr %8, null
  br i1 %.not, label %30, label %9

9:                                                ; preds = %5
  %10 = call i32 @tvb_reported_length(ptr noundef nonnull %8)
  %11 = getelementptr inbounds nuw i8, ptr %2, i64 24
  %12 = load ptr, ptr %11, align 8
  %13 = load i32, ptr @ett_s1ap_TransportLayerAddress, align 4
  %14 = call ptr @proto_item_add_subtree(ptr noundef %12, i32 noundef %13)
  switch i32 %10, label %30 [
    i32 4, label %15
    i32 16, label %19
    i32 20, label %23
  ]

15:                                               ; preds = %9
  %16 = load i32, ptr @hf_s1ap_transportLayerAddressIPv4, align 4
  %17 = load ptr, ptr %6, align 8
  %18 = call ptr @proto_tree_add_item(ptr noundef %14, i32 noundef %16, ptr noundef %17, i32 noundef 0, i32 noundef 4, i32 noundef 0)
  br label %30

19:                                               ; preds = %9
  %20 = load i32, ptr @hf_s1ap_transportLayerAddressIPv6, align 4
  %21 = load ptr, ptr %6, align 8
  %22 = call ptr @proto_tree_add_item(ptr noundef %14, i32 noundef %20, ptr noundef %21, i32 noundef 0, i32 noundef 16, i32 noundef 0)
  br label %30

23:                                               ; preds = %9
  %24 = load i32, ptr @hf_s1ap_transportLayerAddressIPv4, align 4
  %25 = load ptr, ptr %6, align 8
  %26 = call ptr @proto_tree_add_item(ptr noundef %14, i32 noundef %24, ptr noundef %25, i32 noundef 0, i32 noundef 4, i32 noundef 0)
  %27 = load i32, ptr @hf_s1ap_transportLayerAddressIPv6, align 4
  %28 = load ptr, ptr %6, align 8
  %29 = call ptr @proto_tree_add_item(ptr noundef %14, i32 noundef %27, ptr noundef %28, i32 noundef 4, i32 noundef 16, i32 noundef 0)
  br label %30

30:                                               ; preds = %15, %23, %19, %9, %5
  call void @llvm.lifetime.end.p0(i64 8, ptr nonnull %6) #8
  ret i32 %7
}